target datalayout = "e-m:e-p270:32:32-p271:32:32-p272:64:64-i64:64-i128:128-f80:128-n8:16:32:64-S128"
target triple = "x86_64-pc-linux-gnu"

%struct.ExplainState = type { ptr, i8, i8, i8, i8, i8, i8, i8, i8, i8, i8, i32, i32, i32, ptr, ptr, ptr, ptr, ptr, ptr, i8, i32, ptr }

@.str.60 = private unnamed_addr constant [58 x i8] c"<explain xmlns=\22http://www.postgresql.org/2009/explain\22>\0A\00", align 1

; Function Attrs: nounwind uwtable
define dso_local void @ExplainBeginOutput(ptr noundef %0) #0 {
  %2 = alloca ptr, align 8
  store ptr %0, ptr %2, align 8
  %3 = load ptr, ptr %2, align 8
  %4 = getelementptr inbounds nuw %struct.ExplainState, ptr %3, i32 0, i32 12
  %5 = load i32, ptr %4, align 8
  switch i32 %5, label %35 [
    i32 0, label %35
    i32 1, label %6
    i32 2, label %14
    i32 3, label %28
  ]

6:                                                ; preds = %1
  %7 = load ptr, ptr %2, align 8
  %8 = getelementptr inbounds nuw %struct.ExplainState, ptr %7, i32 0, i32 0
  %9 = load ptr, ptr %8, align 8
  call void @appendStringInfoString(ptr noundef %9, ptr noundef @.str.60)
  %10 = load ptr, ptr %2, align 8
  %11 = getelementptr inbounds nuw %struct.ExplainState, ptr %10, i32 0, i32 13
  %12 = load i32, ptr %11, align 4
  %13 = add i32 %12, 1
  store i32 %13, ptr %11, align 4
  br label %35

14:                                               ; preds = %1
  %15 = load ptr, ptr %2, align 8
  %16 = getelementptr inbounds nuw %struct.ExplainState, ptr %15, i32 0, i32 0
  %17 = load ptr, ptr %16, align 8
  call void @appendStringInfoChar(ptr noundef %17, i8 noundef signext 91)
  %18 = load ptr, ptr %2, align 8
  %19 = getelementptr inbounds nuw %struct.ExplainState, ptr %18, i32 0, i32 14
  %20 = load ptr, ptr %19, align 8
  %21 = call ptr @lcons_int(i32 noundef 0, ptr noundef %20)
  %22 = load ptr, ptr %2, align 8
  %23 = getelementptr inbounds nuw %struct.ExplainState, ptr %22, i32 0, i32 14
  store ptr %21, ptr %23, align 8
  %24 = load ptr, ptr %2, align 8
  %25 = getelementptr inbounds nuw %struct.ExplainState, ptr %24, i32 0, i32 13
  %26 = load i32, ptr %25, align 4
  %27 = add i32 %26, 1
  store i32 %27, ptr %25, align 4
  br label %35

28:                                               ; preds = %1
  %29 = load ptr, ptr %2, align 8
  %30 = getelementptr inbounds nuw %struct.ExplainState, ptr %29, i32 0, i32 14
  %31 = load ptr, ptr %30, align 8
  %32 = call ptr @lcons_int(i32 noundef 0, ptr noundef %31)
  %33 = load ptr, ptr %2, align 8
  %34 = getelementptr inbounds nuw %struct.ExplainState, ptr %33, i32 0, i32 14
  store ptr %32, ptr %34, align 8
  br label %35

35:                                               ; preds = %1, %28, %14, %6, %1
  ret void
}