; Function Attrs: nounwind uwtable
define dso_local void @ExplainBeginOutput(ptr noundef captures(none) %0) local_unnamed_addr #0 {
  %2 = getelementptr inbounds nuw i8, ptr %0, i64 24
  %3 = load i32, ptr %2, align 8
  switch i32 %3, label %21 [
    i32 3, label %17
    i32 1, label %4
    i32 2, label %9
  ]

4:                                                ; preds = %1
  %5 = load ptr, ptr %0, align 8
  tail call void @appendStringInfoString(ptr noundef %5, ptr noundef nonnull @.str.60) #13
  %6 = getelementptr inbounds nuw i8, ptr %0, i64 28
  %7 = load i32, ptr %6, align 4
  %8 = add i32 %7, 1
  store i32 %8, ptr %6, align 4
  br label %21

9:                                                ; preds = %1
  %10 = load ptr, ptr %0, align 8
  tail call void @appendStringInfoChar(ptr noundef %10, i8 noundef signext 91) #13
  %11 = getelementptr inbounds nuw i8, ptr %0, i64 32
  %12 = load ptr, ptr %11, align 8
  %13 = tail call ptr @lcons_int(i32 noundef 0, ptr noundef %12) #13
  store ptr %13, ptr %11, align 8
  %14 = getelementptr inbounds nuw i8, ptr %0, i64 28
  %15 = load i32, ptr %14, align 4
  %16 = add i32 %15, 1
  store i32 %16, ptr %14, align 4
  br label %21

17:                                               ; preds = %1
  %18 = getelementptr inbounds nuw i8, ptr %0, i64 32
  %19 = load ptr, ptr %18, align 8
  %20 = tail call ptr @lcons_int(i32 noundef 0, ptr noundef %19) #13
  store ptr %20, ptr %18, align 8
  br label %21

21:                                               ; preds = %17, %9, %4, %1
  ret void
}